target datalayout = "e-m:e-p270:32:32-p271:32:32-p272:64:64-i64:64-i128:128-f80:128-n8:16:32:64-S128"
target triple = "x86_64-pc-linux-gnu"

%struct.ossl_param_st = type { ptr, i32, ptr, i64, i64 }
%struct.TEST_DERIVEKEY_DATA = type { ptr, ptr, i64, ptr, i64, ptr, i64 }

@libctx = internal global ptr null, align 8
@.str.3 = private unnamed_addr constant [38 x i8] c"../openssl/test/evp_pkey_dhkem_test.c\00", align 1
@.str.5 = private unnamed_addr constant [3 x i8] c"EC\00", align 1
@.str.43 = private unnamed_addr constant [6 x i8] c"group\00", align 1
@.str.45 = private unnamed_addr constant [5 x i8] c"priv\00", align 1
@.str.50 = private unnamed_addr constant [2 x i8] c"1\00", align 1
@.str.74 = private unnamed_addr constant [2 x i8] c"0\00", align 1
@.str.103 = private unnamed_addr constant [10 x i8] c"dhkem-ikm\00", align 1
@.str.104 = private unnamed_addr constant [56 x i8] c"genctx = EVP_PKEY_CTX_new_from_name(libctx, \22EC\22, NULL)\00", align 1
@.str.105 = private unnamed_addr constant [29 x i8] c"EVP_PKEY_keygen_init(genctx)\00", align 1
@.str.106 = private unnamed_addr constant [40 x i8] c"EVP_PKEY_CTX_set_params(genctx, params)\00", align 1
@.str.107 = private unnamed_addr constant [33 x i8] c"EVP_PKEY_generate(genctx, &pkey)\00", align 1
@.str.108 = private unnamed_addr constant [110 x i8] c"EVP_PKEY_get_octet_string_param(pkey, OSSL_PKEY_PARAM_ENCODED_PUBLIC_KEY, pubkey, sizeof(pubkey), &pubkeylen)\00", align 1
@.str.109 = private unnamed_addr constant [16 x i8] c"encoded-pub-key\00", align 1
@.str.110 = private unnamed_addr constant [61 x i8] c"EVP_PKEY_get_bn_param(pkey, OSSL_PKEY_PARAM_PRIV_KEY, &priv)\00", align 1
@.str.111 = private unnamed_addr constant [38 x i8] c"privkeylen = BN_bn2bin(priv, privkey)\00", align 1
@.str.112 = private unnamed_addr constant [11 x i8] c"privkeylen\00", align 1
@.str.113 = private unnamed_addr constant [16 x i8] c"sizeof(privkey)\00", align 1
@.str.114 = private unnamed_addr constant [8 x i8] c"privkey\00", align 1
@.str.115 = private unnamed_addr constant [8 x i8] c"t->priv\00", align 1
@.str.116 = private unnamed_addr constant [7 x i8] c"pubkey\00", align 1
@.str.117 = private unnamed_addr constant [7 x i8] c"t->pub\00", align 1

; Function Attrs: nounwind uwtable
define internal i32 @test_ec_dhkem_derivekey(i32 noundef %0) #0 {
  %2 = alloca i32, align 4
  %3 = alloca i32, align 4
  %4 = alloca ptr, align 8
  %5 = alloca [3 x %struct.ossl_param_st], align 16
  %6 = alloca ptr, align 8
  %7 = alloca ptr, align 8
  %8 = alloca [133 x i8], align 16
  %9 = alloca [66 x i8], align 16
  %10 = alloca i64, align 8
  %11 = alloca i64, align 8
  %12 = alloca ptr, align 8
  %13 = alloca %struct.ossl_param_st, align 8
  %14 = alloca %struct.ossl_param_st, align 8
  %15 = alloca %struct.ossl_param_st, align 8
  store i32 %0, ptr %2, align 4, !tbaa !10
  call void @llvm.lifetime.start.p0(i64 4, ptr %3) #6
  store i32 0, ptr %3, align 4, !tbaa !10
  call void @llvm.lifetime.start.p0(i64 8, ptr %4) #6
  store ptr null, ptr %4, align 8, !tbaa !17
  call void @llvm.lifetime.start.p0(i64 120, ptr %5) #6
  call void @llvm.lifetime.start.p0(i64 8, ptr %6) #6
  store ptr null, ptr %6, align 8, !tbaa !19
  call void @llvm.lifetime.start.p0(i64 8, ptr %7) #6
  %16 = load i32, ptr %2, align 4, !tbaa !10
  %17 = sext i32 %16 to i64
  %18 = getelementptr inbounds [3 x %struct.TEST_DERIVEKEY_DATA], ptr @ec_derivekey_data, i64 0, i64 %17
  store ptr %18, ptr %7, align 8, !tbaa !12
  call void @llvm.lifetime.start.p0(i64 133, ptr %8) #6
  call void @llvm.lifetime.start.p0(i64 66, ptr %9) #6
  call void @llvm.lifetime.start.p0(i64 8, ptr %10) #6
  store i64 0, ptr %10, align 8, !tbaa !13
  call void @llvm.lifetime.start.p0(i64 8, ptr %11) #6
  store i64 0, ptr %11, align 8, !tbaa !13
  call void @llvm.lifetime.start.p0(i64 8, ptr %12) #6
  store ptr null, ptr %12, align 8, !tbaa !37
  %19 = getelementptr inbounds [3 x %struct.ossl_param_st], ptr %5, i64 0, i64 0
  call void @llvm.lifetime.start.p0(i64 40, ptr %13) #6
  %20 = load ptr, ptr %7, align 8, !tbaa !12
  %21 = getelementptr inbounds nuw %struct.TEST_DERIVEKEY_DATA, ptr %20, i32 0, i32 0
  %22 = load ptr, ptr %21, align 8, !tbaa !39
  call void @OSSL_PARAM_construct_utf8_string(ptr dead_on_unwind writable sret(%struct.ossl_param_st) align 8 %13, ptr noundef @.str.43, ptr noundef %22, i64 noundef 0)
  call void @llvm.memcpy.p0.p0.i64(ptr align 16 %19, ptr align 8 %13, i64 40, i1 false), !tbaa.struct !9
  call void @llvm.lifetime.end.p0(i64 40, ptr %13) #6
  %23 = getelementptr inbounds [3 x %struct.ossl_param_st], ptr %5, i64 0, i64 1
  call void @llvm.lifetime.start.p0(i64 40, ptr %14) #6
  %24 = load ptr, ptr %7, align 8, !tbaa !12
  %25 = getelementptr inbounds nuw %struct.TEST_DERIVEKEY_DATA, ptr %24, i32 0, i32 1
  %26 = load ptr, ptr %25, align 8, !tbaa !41
  %27 = load ptr, ptr %7, align 8, !tbaa !12
  %28 = getelementptr inbounds nuw %struct.TEST_DERIVEKEY_DATA, ptr %27, i32 0, i32 2
  %29 = load i64, ptr %28, align 8, !tbaa !42
  call void @OSSL_PARAM_construct_octet_string(ptr dead_on_unwind writable sret(%struct.ossl_param_st) align 8 %14, ptr noundef @.str.103, ptr noundef %26, i64 noundef %29)
  call void @llvm.memcpy.p0.p0.i64(ptr align 8 %23, ptr align 8 %14, i64 40, i1 false), !tbaa.struct !9
  call void @llvm.lifetime.end.p0(i64 40, ptr %14) #6
  %30 = getelementptr inbounds [3 x %struct.ossl_param_st], ptr %5, i64 0, i64 2
  call void @llvm.lifetime.start.p0(i64 40, ptr %15) #6
  call void @OSSL_PARAM_construct_end(ptr dead_on_unwind writable sret(%struct.ossl_param_st) align 8 %15)
  call void @llvm.memcpy.p0.p0.i64(ptr align 16 %30, ptr align 8 %15, i64 40, i1 false), !tbaa.struct !9
  call void @llvm.lifetime.end.p0(i64 40, ptr %15) #6
  %31 = load ptr, ptr @libctx, align 8, !tbaa !15
  %32 = call ptr @EVP_PKEY_CTX_new_from_name(ptr noundef %31, ptr noundef @.str.5, ptr noundef null)
  store ptr %32, ptr %6, align 8, !tbaa !19
  %33 = call i32 @test_ptr(ptr noundef @.str.3, i32 noundef 483, ptr noundef @.str.104, ptr noundef %32)
  %34 = icmp ne i32 %33, 0
  br i1 %34, label %35, label %101

35:                                               ; preds = %1
  %36 = load ptr, ptr %6, align 8, !tbaa !19
  %37 = call i32 @EVP_PKEY_keygen_init(ptr noundef %36)
  %38 = call i32 @test_int_eq(ptr noundef @.str.3, i32 noundef 484, ptr noundef @.str.105, ptr noundef @.str.50, i32 noundef %37, i32 noundef 1)
  %39 = icmp ne i32 %38, 0
  br i1 %39, label %40, label %101

40:                                               ; preds = %35
  %41 = load ptr, ptr %6, align 8, !tbaa !19
  %42 = getelementptr inbounds [3 x %struct.ossl_param_st], ptr %5, i64 0, i64 0
  %43 = call i32 @EVP_PKEY_CTX_set_params(ptr noundef %41, ptr noundef %42)
  %44 = call i32 @test_int_eq(ptr noundef @.str.3, i32 noundef 485, ptr noundef @.str.106, ptr noundef @.str.50, i32 noundef %43, i32 noundef 1)
  %45 = icmp ne i32 %44, 0
  br i1 %45, label %46, label %101

46:                                               ; preds = %40
  %47 = load ptr, ptr %6, align 8, !tbaa !19
  %48 = call i32 @EVP_PKEY_generate(ptr noundef %47, ptr noundef %4)
  %49 = call i32 @test_int_eq(ptr noundef @.str.3, i32 noundef 486, ptr noundef @.str.107, ptr noundef @.str.50, i32 noundef %48, i32 noundef 1)
  %50 = icmp ne i32 %49, 0
  br i1 %50, label %51, label %101

51:                                               ; preds = %46
  %52 = load ptr, ptr %4, align 8, !tbaa !17
  %53 = getelementptr inbounds [133 x i8], ptr %8, i64 0, i64 0
  %54 = call i32 @EVP_PKEY_get_octet_string_param(ptr noundef %52, ptr noundef @.str.109, ptr noundef %53, i64 noundef 133, ptr noundef %10)
  %55 = icmp ne i32 %54, 0
  %56 = zext i1 %55 to i32
  %57 = call i32 @test_true(ptr noundef @.str.3, i32 noundef 489, ptr noundef @.str.108, i32 noundef %56)
  %58 = icmp ne i32 %57, 0
  br i1 %58, label %59, label %101

59:                                               ; preds = %51
  %60 = load ptr, ptr %4, align 8, !tbaa !17
  %61 = call i32 @EVP_PKEY_get_bn_param(ptr noundef %60, ptr noundef @.str.45, ptr noundef %12)
  %62 = icmp ne i32 %61, 0
  %63 = zext i1 %62 to i32
  %64 = call i32 @test_true(ptr noundef @.str.3, i32 noundef 491, ptr noundef @.str.110, i32 noundef %63)
  %65 = icmp ne i32 %64, 0
  br i1 %65, label %66, label %101

66:                                               ; preds = %59
  %67 = load ptr, ptr %12, align 8, !tbaa !37
  %68 = getelementptr inbounds [66 x i8], ptr %9, i64 0, i64 0
  %69 = call i32 @BN_bn2bin(ptr noundef %67, ptr noundef %68)
  %70 = sext i32 %69 to i64
  store i64 %70, ptr %11, align 8, !tbaa !13
  %71 = trunc i64 %70 to i32
  %72 = call i32 @test_int_gt(ptr noundef @.str.3, i32 noundef 492, ptr noundef @.str.111, ptr noundef @.str.74, i32 noundef %71, i32 noundef 0)
  %73 = icmp ne i32 %72, 0
  br i1 %73, label %74, label %101

74:                                               ; preds = %66
  %75 = load i64, ptr %11, align 8, !tbaa !13
  %76 = trunc i64 %75 to i32
  %77 = call i32 @test_int_le(ptr noundef @.str.3, i32 noundef 493, ptr noundef @.str.112, ptr noundef @.str.113, i32 noundef %76, i32 noundef 66)
  %78 = icmp ne i32 %77, 0
  br i1 %78, label %79, label %101

79:                                               ; preds = %74
  %80 = getelementptr inbounds [66 x i8], ptr %9, i64 0, i64 0
  %81 = load i64, ptr %11, align 8, !tbaa !13
  %82 = load ptr, ptr %7, align 8, !tbaa !12
  %83 = getelementptr inbounds nuw %struct.TEST_DERIVEKEY_DATA, ptr %82, i32 0, i32 5
  %84 = load ptr, ptr %83, align 8, !tbaa !43
  %85 = load ptr, ptr %7, align 8, !tbaa !12
  %86 = getelementptr inbounds nuw %struct.TEST_DERIVEKEY_DATA, ptr %85, i32 0, i32 6
  %87 = load i64, ptr %86, align 8, !tbaa !44
  %88 = call i32 @test_mem_eq(ptr noundef @.str.3, i32 noundef 494, ptr noundef @.str.114, ptr noundef @.str.115, ptr noundef %80, i64 noundef %81, ptr noundef %84, i64 noundef %87)
  %89 = icmp ne i32 %88, 0
  br i1 %89, label %90, label %101

90:                                               ; preds = %79
  %91 = getelementptr inbounds [133 x i8], ptr %8, i64 0, i64 0
  %92 = load i64, ptr %10, align 8, !tbaa !13
  %93 = load ptr, ptr %7, align 8, !tbaa !12
  %94 = getelementptr inbounds nuw %struct.TEST_DERIVEKEY_DATA, ptr %93, i32 0, i32 3
  %95 = load ptr, ptr %94, align 8, !tbaa !45
  %96 = load ptr, ptr %7, align 8, !tbaa !12
  %97 = getelementptr inbounds nuw %struct.TEST_DERIVEKEY_DATA, ptr %96, i32 0, i32 4
  %98 = load i64, ptr %97, align 8, !tbaa !46
  %99 = call i32 @test_mem_eq(ptr noundef @.str.3, i32 noundef 495, ptr noundef @.str.116, ptr noundef @.str.117, ptr noundef %91, i64 noundef %92, ptr noundef %95, i64 noundef %98)
  %100 = icmp ne i32 %99, 0
  br label %101

101:                                              ; preds = %90, %79, %74, %66, %59, %51, %46, %40, %35, %1
  %102 = phi i1 [ false, %79 ], [ false, %74 ], [ false, %66 ], [ false, %59 ], [ false, %51 ], [ false, %46 ], [ false, %40 ], [ false, %35 ], [ false, %1 ], [ %100, %90 ]
  %103 = zext i1 %102 to i32
  store i32 %103, ptr %3, align 4, !tbaa !10
  %104 = load ptr, ptr %12, align 8, !tbaa !37
  call void @BN_free(ptr noundef %104)
  %105 = load ptr, ptr %4, align 8, !tbaa !17
  call void @EVP_PKEY_free(ptr noundef %105)
  %106 = load ptr, ptr %6, align 8, !tbaa !19
  call void @EVP_PKEY_CTX_free(ptr noundef %106)
  %107 = load i32, ptr %3, align 4, !tbaa !10
  call void @llvm.lifetime.end.p0(i64 8, ptr %12) #6
  call void @llvm.lifetime.end.p0(i64 8, ptr %11) #6
  call void @llvm.lifetime.end.p0(i64 8, ptr %10) #6
  call void @llvm.lifetime.end.p0(i64 66, ptr %9) #6
  call void @llvm.lifetime.end.p0(i64 133, ptr %8) #6
  call void @llvm.lifetime.end.p0(i64 8, ptr %7) #6
  call void @llvm.lifetime.end.p0(i64 8, ptr %6) #6
  call void @llvm.lifetime.end.p0(i64 120, ptr %5) #6
  call void @llvm.lifetime.end.p0(i64 8, ptr %4) #6
  call void @llvm.lifetime.end.p0(i64 4, ptr %3) #6
  ret i32 %107
}