; Function Attrs: nounwind uwtable
define internal range(i32 0, 2) i32 @test_ec_dhkem_derivekey(i32 noundef %0) #0 {
  %2 = alloca ptr, align 8
  %3 = alloca [3 x %struct.ossl_param_st], align 16
  %4 = alloca [133 x i8], align 16
  %5 = alloca [66 x i8], align 16
  %6 = alloca i64, align 8
  %7 = alloca ptr, align 8
  %8 = alloca %struct.ossl_param_st, align 8
  %9 = alloca %struct.ossl_param_st, align 8
  call void @llvm.lifetime.start.p0(i64 8, ptr nonnull %2) #5
  store ptr null, ptr %2, align 8, !tbaa !17
  call void @llvm.lifetime.start.p0(i64 120, ptr nonnull %3) #5
  %10 = sext i32 %0 to i64
  %11 = getelementptr inbounds [3 x %struct.TEST_DERIVEKEY_DATA], ptr @ec_derivekey_data, i64 0, i64 %10
  call void @llvm.lifetime.start.p0(i64 133, ptr nonnull %4) #5
  call void @llvm.lifetime.start.p0(i64 66, ptr nonnull %5) #5
  call void @llvm.lifetime.start.p0(i64 8, ptr nonnull %6) #5
  store i64 0, ptr %6, align 8, !tbaa !13
  call void @llvm.lifetime.start.p0(i64 8, ptr nonnull %7) #5
  store ptr null, ptr %7, align 8, !tbaa !39
  %12 = load ptr, ptr %11, align 8, !tbaa !41
  call void @OSSL_PARAM_construct_utf8_string(ptr dead_on_unwind nonnull writable sret(%struct.ossl_param_st) align 8 %3, ptr noundef nonnull @.str.43, ptr noundef %12, i64 noundef 0) #5
  %13 = getelementptr inbounds nuw i8, ptr %3, i64 40
  call void @llvm.lifetime.start.p0(i64 40, ptr nonnull %8) #5
  %14 = getelementptr inbounds nuw i8, ptr %11, i64 8
  %15 = load ptr, ptr %14, align 8, !tbaa !43
  %16 = getelementptr inbounds nuw i8, ptr %11, i64 16
  %17 = load i64, ptr %16, align 8, !tbaa !44
  call void @OSSL_PARAM_construct_octet_string(ptr dead_on_unwind nonnull writable sret(%struct.ossl_param_st) align 8 %8, ptr noundef nonnull @.str.103, ptr noundef %15, i64 noundef %17) #5
  call void @llvm.memcpy.p0.p0.i64(ptr noundef nonnull align 8 dereferenceable(40) %13, ptr noundef nonnull align 8 dereferenceable(40) %8, i64 40, i1 false), !tbaa.struct !4
  call void @llvm.lifetime.end.p0(i64 40, ptr nonnull %8) #5
  %18 = getelementptr inbounds nuw i8, ptr %3, i64 80
  call void @llvm.lifetime.start.p0(i64 40, ptr nonnull %9) #5
  call void @OSSL_PARAM_construct_end(ptr dead_on_unwind nonnull writable sret(%struct.ossl_param_st) align 8 %9) #5
  call void @llvm.memcpy.p0.p0.i64(ptr noundef nonnull align 16 dereferenceable(40) %18, ptr noundef nonnull align 8 dereferenceable(40) %9, i64 40, i1 false), !tbaa.struct !4
  call void @llvm.lifetime.end.p0(i64 40, ptr nonnull %9) #5
  %19 = load ptr, ptr @libctx, align 8, !tbaa !15
  %20 = call ptr @EVP_PKEY_CTX_new_from_name(ptr noundef %19, ptr noundef nonnull @.str.5, ptr noundef null) #5
  %21 = call i32 @test_ptr(ptr noundef nonnull @.str.3, i32 noundef 483, ptr noundef nonnull @.str.104, ptr noundef %20) #5
  %.not = icmp eq i32 %21, 0
  br i1 %.not, label %65, label %22

22:                                               ; preds = %1
  %23 = call i32 @EVP_PKEY_keygen_init(ptr noundef %20) #5
  %24 = call i32 @test_int_eq(ptr noundef nonnull @.str.3, i32 noundef 484, ptr noundef nonnull @.str.105, ptr noundef nonnull @.str.50, i32 noundef %23, i32 noundef 1) #5
  %.not14 = icmp eq i32 %24, 0
  br i1 %.not14, label %65, label %25

25:                                               ; preds = %22
  %26 = call i32 @EVP_PKEY_CTX_set_params(ptr noundef %20, ptr noundef nonnull %3) #5
  %27 = call i32 @test_int_eq(ptr noundef nonnull @.str.3, i32 noundef 485, ptr noundef nonnull @.str.106, ptr noundef nonnull @.str.50, i32 noundef %26, i32 noundef 1) #5
  %.not15 = icmp eq i32 %27, 0
  br i1 %.not15, label %65, label %28

28:                                               ; preds = %25
  %29 = call i32 @EVP_PKEY_generate(ptr noundef %20, ptr noundef nonnull %2) #5
  %30 = call i32 @test_int_eq(ptr noundef nonnull @.str.3, i32 noundef 486, ptr noundef nonnull @.str.107, ptr noundef nonnull @.str.50, i32 noundef %29, i32 noundef 1) #5
  %.not16 = icmp eq i32 %30, 0
  br i1 %.not16, label %65, label %31

31:                                               ; preds = %28
  %32 = load ptr, ptr %2, align 8, !tbaa !17
  %33 = call i32 @EVP_PKEY_get_octet_string_param(ptr noundef %32, ptr noundef nonnull @.str.109, ptr noundef nonnull %4, i64 noundef 133, ptr noundef nonnull %6) #5
  %34 = icmp ne i32 %33, 0
  %35 = zext i1 %34 to i32
  %36 = call i32 @test_true(ptr noundef nonnull @.str.3, i32 noundef 489, ptr noundef nonnull @.str.108, i32 noundef %35) #5
  %.not17 = icmp eq i32 %36, 0
  br i1 %.not17, label %65, label %37

37:                                               ; preds = %31
  %38 = load ptr, ptr %2, align 8, !tbaa !17
  %39 = call i32 @EVP_PKEY_get_bn_param(ptr noundef %38, ptr noundef nonnull @.str.45, ptr noundef nonnull %7) #5
  %40 = icmp ne i32 %39, 0
  %41 = zext i1 %40 to i32
  %42 = call i32 @test_true(ptr noundef nonnull @.str.3, i32 noundef 491, ptr noundef nonnull @.str.110, i32 noundef %41) #5
  %.not18 = icmp eq i32 %42, 0
  br i1 %.not18, label %65, label %43

43:                                               ; preds = %37
  %44 = load ptr, ptr %7, align 8, !tbaa !39
  %45 = call i32 @BN_bn2bin(ptr noundef %44, ptr noundef nonnull %5) #5
  %46 = sext i32 %45 to i64
  %47 = call i32 @test_int_gt(ptr noundef nonnull @.str.3, i32 noundef 492, ptr noundef nonnull @.str.111, ptr noundef nonnull @.str.74, i32 noundef %45, i32 noundef 0) #5
  %.not19 = icmp eq i32 %47, 0
  br i1 %.not19, label %65, label %48

48:                                               ; preds = %43
  %49 = call i32 @test_int_le(ptr noundef nonnull @.str.3, i32 noundef 493, ptr noundef nonnull @.str.112, ptr noundef nonnull @.str.113, i32 noundef %45, i32 noundef 66) #5
  %.not20 = icmp eq i32 %49, 0
  br i1 %.not20, label %65, label %50

50:                                               ; preds = %48
  %51 = getelementptr inbounds nuw i8, ptr %11, i64 40
  %52 = load ptr, ptr %51, align 8, !tbaa !45
  %53 = getelementptr inbounds nuw i8, ptr %11, i64 48
  %54 = load i64, ptr %53, align 8, !tbaa !46
  %55 = call i32 @test_mem_eq(ptr noundef nonnull @.str.3, i32 noundef 494, ptr noundef nonnull @.str.114, ptr noundef nonnull @.str.115, ptr noundef nonnull %5, i64 noundef %46, ptr noundef %52, i64 noundef %54) #5
  %.not21 = icmp eq i32 %55, 0
  br i1 %.not21, label %65, label %56

56:                                               ; preds = %50
  %57 = load i64, ptr %6, align 8, !tbaa !13
  %58 = getelementptr inbounds nuw i8, ptr %11, i64 24
  %59 = load ptr, ptr %58, align 8, !tbaa !47
  %60 = getelementptr inbounds nuw i8, ptr %11, i64 32
  %61 = load i64, ptr %60, align 8, !tbaa !48
  %62 = call i32 @test_mem_eq(ptr noundef nonnull @.str.3, i32 noundef 495, ptr noundef nonnull @.str.116, ptr noundef nonnull @.str.117, ptr noundef nonnull %4, i64 noundef %57, ptr noundef %59, i64 noundef %61) #5
  %63 = icmp ne i32 %62, 0
  %64 = zext i1 %63 to i32
  br label %65

65:                                               ; preds = %56, %50, %48, %43, %37, %31, %28, %25, %22, %1
  %66 = phi i32 [ 0, %50 ], [ 0, %48 ], [ 0, %43 ], [ 0, %37 ], [ 0, %31 ], [ 0, %28 ], [ 0, %25 ], [ 0, %22 ], [ 0, %1 ], [ %64, %56 ]
  %67 = load ptr, ptr %7, align 8, !tbaa !39
  call void @BN_free(ptr noundef %67) #5
  %68 = load ptr, ptr %2, align 8, !tbaa !17
  call void @EVP_PKEY_free(ptr noundef %68) #5
  call void @EVP_PKEY_CTX_free(ptr noundef %20) #5
  call void @llvm.lifetime.end.p0(i64 8, ptr nonnull %7) #5
  call void @llvm.lifetime.end.p0(i64 8, ptr nonnull %6) #5
  call void @llvm.lifetime.end.p0(i64 66, ptr nonnull %5) #5
  call void @llvm.lifetime.end.p0(i64 133, ptr nonnull %4) #5
  call void @llvm.lifetime.end.p0(i64 120, ptr nonnull %3) #5
  call void @llvm.lifetime.end.p0(i64 8, ptr nonnull %2) #5
  ret i32 %66
}